target datalayout = "e-m:e-p270:32:32-p271:32:32-p272:64:64-i64:64-i128:128-f80:128-n8:16:32:64-S128"
target triple = "x86_64-pc-linux-gnu"

%"class.std::__1::future" = type { ptr }
%"class.std::__1::promise" = type { ptr }

@_ZNSt3__16futureIvEC1EPNS_17__assoc_sub_stateE = dso_local unnamed_addr alias void (ptr, ptr), ptr @_ZNSt3__16futureIvEC2EPNS_17__assoc_sub_stateE

; Function Attrs: mustprogress uwtable
define dso_local void @_ZNSt3__17promiseIvE10get_futureEv(ptr dead_on_unwind noalias writable sret(%"class.std::__1::future") align 8 %0, ptr noundef nonnull align 8 dereferenceable(8) %1) #1 align 2 {
  %3 = alloca ptr, align 8
  %4 = alloca ptr, align 8
  store ptr %0, ptr %3, align 8
  store ptr %1, ptr %4, align 8, !tbaa !66
  %5 = load ptr, ptr %4, align 8
  %6 = getelementptr inbounds nuw %"class.std::__1::promise", ptr %5, i32 0, i32 0
  %7 = load ptr, ptr %6, align 8, !tbaa !68
  %8 = icmp eq ptr %7, null
  br i1 %8, label %9, label %10

9:                                                ; preds = %2
  call void @_ZNSt3__120__throw_future_errorB8ne210000ENS_11future_errcE(i32 noundef 3) #18
  unreachable

10:                                               ; preds = %2
  %11 = getelementptr inbounds nuw %"class.std::__1::promise", ptr %5, i32 0, i32 0
  %12 = load ptr, ptr %11, align 8, !tbaa !68
  call void @_ZNSt3__16futureIvEC1EPNS_17__assoc_sub_stateE(ptr noundef nonnull align 8 dereferenceable(8) %0, ptr noundef %12)
  ret void
}