; Function Attrs: mustprogress uwtable
define dso_local void @_ZNSt3__17promiseIvE10get_futureEv(ptr dead_on_unwind noalias writable writeonly sret(%"class.std::__1::future") align 8 captures(none) %0, ptr noundef nonnull readonly align 8 captures(none) dereferenceable(8) %1) local_unnamed_addr #1 align 2 personality ptr @__gxx_personality_v0 {
  %3 = load ptr, ptr %1, align 8, !tbaa !39
  %4 = icmp eq ptr %3, null
  br i1 %4, label %5, label %6

5:                                                ; preds = %2
  tail call void @_ZNSt3__120__throw_future_errorB8ne210000ENS_11future_errcE(i32 noundef 3) #23
  unreachable

6:                                                ; preds = %2
  store ptr %3, ptr %0, align 8, !tbaa !35
  %7 = getelementptr inbounds nuw i8, ptr %3, i64 24
  tail call void @_ZNSt3__15mutex4lockEv(ptr noundef nonnull align 8 dereferenceable(40) %7)
  %8 = getelementptr inbounds nuw i8, ptr %3, i64 112
  %9 = load i32, ptr %8, align 8, !tbaa !16
  %10 = and i32 %9, 2
  %.not.i.i = icmp eq i32 %10, 0
  br i1 %.not.i.i, label %_ZNSt3__16futureIvEC2EPNS_17__assoc_sub_stateE.exit, label %11

11:                                               ; preds = %6
  invoke void @_ZNSt3__120__throw_future_errorB8ne210000ENS_11future_errcE(i32 noundef 1) #23
          to label %12 unwind label %13

12:                                               ; preds = %11
  unreachable

13:                                               ; preds = %11
  %14 = landingpad { ptr, i32 }
          cleanup
  tail call void @_ZNSt3__15mutex6unlockEv(ptr noundef nonnull align 8 dereferenceable(40) %7) #21
  resume { ptr, i32 } %14

_ZNSt3__16futureIvEC2EPNS_17__assoc_sub_stateE.exit: ; preds = %6
  %15 = getelementptr inbounds nuw i8, ptr %3, i64 8
  %16 = atomicrmw add ptr %15, i64 1 monotonic, align 8
  %17 = or disjoint i32 %9, 2
  store i32 %17, ptr %8, align 8, !tbaa !16
  tail call void @_ZNSt3__15mutex6unlockEv(ptr noundef nonnull align 8 dereferenceable(40) %7) #21
  ret void
}